target datalayout = "e-m:e-p270:32:32-p271:32:32-p272:64:64-i64:64-i128:128-f80:128-n8:16:32:64-S128"
target triple = "x86_64-pc-linux-gnu"

%struct._crawler_module_t = type { ptr, %struct.crawler_client_t, ptr, i32 }
%struct.crawler_client_t = type { ptr, i32, i32, i32, ptr }

@.str.12 = private unnamed_addr constant [31 x i8] c"ERROR locked try again later\0D\0A\00", align 1
@.str.17 = private unnamed_addr constant [5 x i8] c"EN\0D\0A\00", align 1

; Function Attrs: nounwind uwtable
define internal void @crawler_mgdump_finalize(ptr noundef %0) #0 {
  %2 = alloca ptr, align 8
  %3 = alloca ptr, align 8
  %4 = alloca i64, align 8
  store ptr %0, ptr %2, align 8, !tbaa !4
  %5 = load ptr, ptr %2, align 8, !tbaa !4
  %6 = getelementptr inbounds nuw %struct._crawler_module_t, ptr %5, i32 0, i32 1
  %7 = getelementptr inbounds nuw %struct.crawler_client_t, ptr %6, i32 0, i32 0
  %8 = load ptr, ptr %7, align 8, !tbaa !58
  %9 = icmp ne ptr %8, null
  br i1 %9, label %10, label %49

10:                                               ; preds = %1
  %11 = load ptr, ptr %2, align 8, !tbaa !4
  %12 = getelementptr inbounds nuw %struct._crawler_module_t, ptr %11, i32 0, i32 1
  %13 = call i32 @lru_crawler_write(ptr noundef %12)
  %14 = icmp eq i32 %13, 0
  br i1 %14, label %15, label %48

15:                                               ; preds = %10
  %16 = load ptr, ptr %2, align 8, !tbaa !4
  %17 = getelementptr inbounds nuw %struct._crawler_module_t, ptr %16, i32 0, i32 3
  %18 = load i32, ptr %17, align 8, !tbaa !55
  %19 = icmp ne i32 %18, 0
  br i1 %19, label %20, label %37

20:                                               ; preds = %15
  call void @llvm.lifetime.start.p0(i64 8, ptr %3) #11
  store ptr @.str.12, ptr %3, align 8, !tbaa !42
  call void @llvm.lifetime.start.p0(i64 8, ptr %4) #11
  %21 = load ptr, ptr %3, align 8, !tbaa !42
  %22 = call i64 @strlen(ptr noundef %21) #13
  store i64 %22, ptr %4, align 8, !tbaa !51
  %23 = load ptr, ptr %2, align 8, !tbaa !4
  %24 = getelementptr inbounds nuw %struct._crawler_module_t, ptr %23, i32 0, i32 1
  %25 = getelementptr inbounds nuw %struct.crawler_client_t, ptr %24, i32 0, i32 4
  %26 = load ptr, ptr %25, align 8, !tbaa !56
  %27 = load ptr, ptr %3, align 8, !tbaa !42
  %28 = load i64, ptr %4, align 8, !tbaa !51
  call void @llvm.memcpy.p0.p0.i64(ptr align 1 %26, ptr align 1 %27, i64 %28, i1 false)
  %29 = load i64, ptr %4, align 8, !tbaa !51
  %30 = load ptr, ptr %2, align 8, !tbaa !4
  %31 = getelementptr inbounds nuw %struct._crawler_module_t, ptr %30, i32 0, i32 1
  %32 = getelementptr inbounds nuw %struct.crawler_client_t, ptr %31, i32 0, i32 3
  %33 = load i32, ptr %32, align 8, !tbaa !57
  %34 = sext i32 %33 to i64
  %35 = add i64 %34, %29
  %36 = trunc i64 %35 to i32
  store i32 %36, ptr %32, align 8, !tbaa !57
  call void @llvm.lifetime.end.p0(i64 8, ptr %4) #11
  call void @llvm.lifetime.end.p0(i64 8, ptr %3) #11
  br label %47

37:                                               ; preds = %15
  %38 = load ptr, ptr %2, align 8, !tbaa !4
  %39 = getelementptr inbounds nuw %struct._crawler_module_t, ptr %38, i32 0, i32 1
  %40 = getelementptr inbounds nuw %struct.crawler_client_t, ptr %39, i32 0, i32 4
  %41 = load ptr, ptr %40, align 8, !tbaa !56
  call void @llvm.memcpy.p0.p0.i64(ptr align 1 %41, ptr align 1 @.str.17, i64 4, i1 false)
  %42 = load ptr, ptr %2, align 8, !tbaa !4
  %43 = getelementptr inbounds nuw %struct._crawler_module_t, ptr %42, i32 0, i32 1
  %44 = getelementptr inbounds nuw %struct.crawler_client_t, ptr %43, i32 0, i32 3
  %45 = load i32, ptr %44, align 8, !tbaa !57
  %46 = add nsw i32 %45, 4
  store i32 %46, ptr %44, align 8, !tbaa !57
  br label %47

47:                                               ; preds = %37, %20
  br label %48

48:                                               ; preds = %47, %10
  br label %49

49:                                               ; preds = %48, %1
  ret void
}